target datalayout = "e-m:e-p270:32:32-p271:32:32-p272:64:64-i64:64-i128:128-f80:128-n8:16:32:64-S128"
target triple = "x86_64-pc-linux-gnu"

%"struct.std::_Rb_tree_header" = type { %"struct.std::_Rb_tree_node_base", i64 }
%"struct.std::_Rb_tree_node_base" = type { i32, ptr, ptr, ptr }
%"class.std::__cxx11::basic_string" = type { %"struct.std::__cxx11::basic_string<char>::_Alloc_hider", i64, %union.anon }
%"struct.std::__cxx11::basic_string<char>::_Alloc_hider" = type { ptr }
%union.anon = type { i64, [8 x i8] }
%"struct.jsonnet::internal::(anonymous namespace)::Value" = type { i32, %union.anon.17 }
%union.anon.17 = type { ptr }
%"class.jsonnet::internal::(anonymous namespace)::Stack" = type { ptr, i32, i32, %"class.std::vector.18" }
%"class.std::vector.18" = type { %"struct.std::_Vector_base.19" }
%"struct.std::_Vector_base.19" = type { %"struct.std::_Vector_base<jsonnet::internal::(anonymous namespace)::Frame, std::allocator<jsonnet::internal::(anonymous namespace)::Frame>>::_Vector_impl" }
%"struct.std::_Vector_base<jsonnet::internal::(anonymous namespace)::Frame, std::allocator<jsonnet::internal::(anonymous namespace)::Frame>>::_Vector_impl" = type { %"struct.std::_Vector_base<jsonnet::internal::(anonymous namespace)::Frame, std::allocator<jsonnet::internal::(anonymous namespace)::Frame>>::_Vector_impl_data" }
%"struct.std::_Vector_base<jsonnet::internal::(anonymous namespace)::Frame, std::allocator<jsonnet::internal::(anonymous namespace)::Frame>>::_Vector_impl_data" = type { ptr, ptr, ptr }
%"class.std::__cxx11::basic_string.54" = type { %"struct.std::__cxx11::basic_string<char32_t>::_Alloc_hider", i64, %union.anon.58 }
%"struct.std::__cxx11::basic_string<char32_t>::_Alloc_hider" = type { ptr }
%union.anon.58 = type { i64, [8 x i8] }
%"struct.jsonnet::internal::LocationRange" = type { %"class.std::__cxx11::basic_string", %"struct.jsonnet::internal::Location", %"struct.jsonnet::internal::Location" }
%"struct.jsonnet::internal::Location" = type { i64, i64 }
%"class.std::map.119" = type { %"class.std::_Rb_tree.120" }
%"class.std::_Rb_tree.120" = type { %"struct.std::_Rb_tree<const jsonnet::internal::Identifier *, std::pair<const jsonnet::internal::Identifier *const, jsonnet::internal::(anonymous namespace)::HeapThunk *>, std::_Select1st<std::pair<const jsonnet::internal::Identifier *const, jsonnet::internal::(anonymous namespace)::HeapThunk *>>, std::less<const jsonnet::internal::Identifier *>>::_Rb_tree_impl" }
%"struct.std::_Rb_tree<const jsonnet::internal::Identifier *, std::pair<const jsonnet::internal::Identifier *const, jsonnet::internal::(anonymous namespace)::HeapThunk *>, std::_Select1st<std::pair<const jsonnet::internal::Identifier *const, jsonnet::internal::(anonymous namespace)::HeapThunk *>>, std::less<const jsonnet::internal::Identifier *>>::_Rb_tree_impl" = type { [8 x i8], %"struct.std::_Rb_tree_header" }
%"class.std::vector.130" = type { %"struct.std::_Vector_base.131" }
%"struct.std::_Vector_base.131" = type { %"struct.std::_Vector_base<jsonnet::internal::(anonymous namespace)::HeapThunk *, std::allocator<jsonnet::internal::(anonymous namespace)::HeapThunk *>>::_Vector_impl" }
%"struct.std::_Vector_base<jsonnet::internal::(anonymous namespace)::HeapThunk *, std::allocator<jsonnet::internal::(anonymous namespace)::HeapThunk *>>::_Vector_impl" = type { %"struct.std::_Vector_base<jsonnet::internal::(anonymous namespace)::HeapThunk *, std::allocator<jsonnet::internal::(anonymous namespace)::HeapThunk *>>::_Vector_impl_data" }
%"struct.std::_Vector_base<jsonnet::internal::(anonymous namespace)::HeapThunk *, std::allocator<jsonnet::internal::(anonymous namespace)::HeapThunk *>>::_Vector_impl_data" = type { ptr, ptr, ptr }
%"class.std::map.125" = type { %"class.std::_Rb_tree.126" }
%"class.std::_Rb_tree.126" = type { %"struct.std::_Rb_tree<const jsonnet::internal::Identifier *, std::pair<const jsonnet::internal::Identifier *const, jsonnet::internal::(anonymous namespace)::HeapSimpleObject::Field>, std::_Select1st<std::pair<const jsonnet::internal::Identifier *const, jsonnet::internal::(anonymous namespace)::HeapSimpleObject::Field>>, std::less<const jsonnet::internal::Identifier *>>::_Rb_tree_impl" }
%"struct.std::_Rb_tree<const jsonnet::internal::Identifier *, std::pair<const jsonnet::internal::Identifier *const, jsonnet::internal::(anonymous namespace)::HeapSimpleObject::Field>, std::_Select1st<std::pair<const jsonnet::internal::Identifier *const, jsonnet::internal::(anonymous namespace)::HeapSimpleObject::Field>>, std::less<const jsonnet::internal::Identifier *>>::_Rb_tree_impl" = type { [8 x i8], %"struct.std::_Rb_tree_header" }
%"class.__gnu_cxx::__normal_iterator" = type { ptr }
%"struct.jsonnet::internal::(anonymous namespace)::Frame" = type { i32, ptr, %"struct.jsonnet::internal::LocationRange", i8, %"struct.jsonnet::internal::(anonymous namespace)::Value", %"struct.jsonnet::internal::(anonymous namespace)::Value", %"class.__gnu_cxx::__normal_iterator", %"class.std::map.125", i32, %"class.std::map.119", %"class.std::vector.130", %"class.std::__cxx11::basic_string.54", i8, %"class.std::__cxx11::basic_string", ptr, ptr, i32, %"class.std::map.119" }

@_ZTVN7jsonnet8internal12_GLOBAL__N_15StackE = internal unnamed_addr constant { [3 x ptr] } { [3 x ptr] [ptr null, ptr @_ZTIN7jsonnet8internal12_GLOBAL__N_15StackE, ptr @_ZN7jsonnet8internal12_GLOBAL__N_15Stack4dumpEv] }, align 8

; Function Attrs: mustprogress nounwind uwtable
define internal void @_ZNSt15__new_allocatorIN7jsonnet8internal12_GLOBAL__N_15FrameEE10deallocateEPS3_m(ptr noundef nonnull align 1 dereferenceable(1) %0, ptr noundef %1, i64 noundef %2) #5 align 2 {
  %4 = alloca ptr, align 8
  %5 = alloca ptr, align 8
  %6 = alloca i64, align 8
  store ptr %0, ptr %4, align 8, !tbaa !634
  store ptr %1, ptr %5, align 8, !tbaa !204
  store i64 %2, ptr %6, align 8, !tbaa !271
  %7 = load ptr, ptr %5, align 8, !tbaa !204
  %8 = load i64, ptr %6, align 8, !tbaa !271
  %9 = mul i64 %8, 400
  call void @_ZdlPvm(ptr noundef %7, i64 noundef %9) #34
  ret void
}

; Function Attrs: inlinehint mustprogress nounwind uwtable
define internal void @_ZSt8_DestroyIN7jsonnet8internal12_GLOBAL__N_15FrameEEvPT_(ptr noundef %0) #8 {
  %2 = alloca ptr, align 8
  store ptr %0, ptr %2, align 8, !tbaa !204
  %3 = load ptr, ptr %2, align 8, !tbaa !204
  call void @_ZN7jsonnet8internal12_GLOBAL__N_15FrameD2Ev(ptr noundef nonnull align 8 dereferenceable(400) %3) #3
  ret void
}

; Function Attrs: mustprogress uwtable
define internal void @_ZNSt16allocator_traitsISaIN7jsonnet8internal12_GLOBAL__N_15FrameEEE10deallocateERS4_PS3_m(ptr noundef nonnull align 1 dereferenceable(1) %0, ptr noundef %1, i64 noundef %2) #4 align 2 {
  %4 = alloca ptr, align 8
  %5 = alloca ptr, align 8
  %6 = alloca i64, align 8
  store ptr %0, ptr %4, align 8, !tbaa !627
  store ptr %1, ptr %5, align 8, !tbaa !204
  store i64 %2, ptr %6, align 8, !tbaa !271
  %7 = load ptr, ptr %4, align 8, !tbaa !627
  %8 = load ptr, ptr %5, align 8, !tbaa !204
  %9 = load i64, ptr %6, align 8, !tbaa !271
  call void @_ZNSt15__new_allocatorIN7jsonnet8internal12_GLOBAL__N_15FrameEE10deallocateEPS3_m(ptr noundef nonnull align 1 dereferenceable(1) %7, ptr noundef %8, i64 noundef %9)
  ret void
}

; Function Attrs: mustprogress uwtable
define internal void @_ZNSt12_Destroy_auxILb0EE9__destroyIPN7jsonnet8internal12_GLOBAL__N_15FrameEEEvT_S7_(ptr noundef %0, ptr noundef %1) #4 align 2 {
  %3 = alloca ptr, align 8
  %4 = alloca ptr, align 8
  store ptr %0, ptr %3, align 8, !tbaa !204
  store ptr %1, ptr %4, align 8, !tbaa !204
  br label %5

5:                                                ; preds = %11, %2
  %6 = load ptr, ptr %3, align 8, !tbaa !204
  %7 = load ptr, ptr %4, align 8, !tbaa !204
  %8 = icmp ne ptr %6, %7
  br i1 %8, label %9, label %14

9:                                                ; preds = %5
  %10 = load ptr, ptr %3, align 8, !tbaa !204
  call void @_ZSt8_DestroyIN7jsonnet8internal12_GLOBAL__N_15FrameEEvPT_(ptr noundef %10)
  br label %11

11:                                               ; preds = %9
  %12 = load ptr, ptr %3, align 8, !tbaa !204
  %13 = getelementptr inbounds nuw %"struct.jsonnet::internal::(anonymous namespace)::Frame", ptr %12, i32 1
  store ptr %13, ptr %3, align 8, !tbaa !204
  br label %5, !llvm.loop !2135

14:                                               ; preds = %5
  ret void
}

; Function Attrs: mustprogress nounwind uwtable
define internal void @_ZNSt15__new_allocatorIN7jsonnet8internal12_GLOBAL__N_15FrameEED2Ev(ptr noundef nonnull align 1 dereferenceable(1) %0) unnamed_addr #5 align 2 {
  %2 = alloca ptr, align 8
  store ptr %0, ptr %2, align 8, !tbaa !634
  ret void
}

; Function Attrs: mustprogress uwtable
define internal void @_ZNSt12_Vector_baseIN7jsonnet8internal12_GLOBAL__N_15FrameESaIS3_EE13_M_deallocateEPS3_m(ptr noundef nonnull align 8 dereferenceable(24) %0, ptr noundef %1, i64 noundef %2) #4 align 2 {
  %4 = alloca ptr, align 8
  %5 = alloca ptr, align 8
  %6 = alloca i64, align 8
  store ptr %0, ptr %4, align 8, !tbaa !623
  store ptr %1, ptr %5, align 8, !tbaa !204
  store i64 %2, ptr %6, align 8, !tbaa !271
  %7 = load ptr, ptr %4, align 8
  %8 = load ptr, ptr %5, align 8, !tbaa !204
  %9 = icmp ne ptr %8, null
  br i1 %9, label %10, label %14

10:                                               ; preds = %3
  %11 = getelementptr inbounds nuw %"struct.std::_Vector_base.19", ptr %7, i32 0, i32 0
  %12 = load ptr, ptr %5, align 8, !tbaa !204
  %13 = load i64, ptr %6, align 8, !tbaa !271
  call void @_ZNSt16allocator_traitsISaIN7jsonnet8internal12_GLOBAL__N_15FrameEEE10deallocateERS4_PS3_m(ptr noundef nonnull align 1 dereferenceable(1) %11, ptr noundef %12, i64 noundef %13)
  br label %14

14:                                               ; preds = %10, %3
  ret void
}

; Function Attrs: inlinehint mustprogress uwtable
define internal void @_ZSt8_DestroyIPN7jsonnet8internal12_GLOBAL__N_15FrameEEvT_S5_(ptr noundef %0, ptr noundef %1) #7 {
  %3 = alloca ptr, align 8
  %4 = alloca ptr, align 8
  store ptr %0, ptr %3, align 8, !tbaa !204
  store ptr %1, ptr %4, align 8, !tbaa !204
  %5 = load ptr, ptr %3, align 8, !tbaa !204
  %6 = load ptr, ptr %4, align 8, !tbaa !204
  call void @_ZNSt12_Destroy_auxILb0EE9__destroyIPN7jsonnet8internal12_GLOBAL__N_15FrameEEEvT_S7_(ptr noundef %5, ptr noundef %6)
  ret void
}

; Function Attrs: noinline noreturn nounwind uwtable
define linkonce_odr hidden void @__clang_call_terminate(ptr noundef %0) #9 comdat {
  %2 = call ptr @__cxa_begin_catch(ptr %0) #3
  call void @_ZSt9terminatev() #32
  unreachable
}

; Function Attrs: mustprogress nounwind uwtable
define internal void @_ZNSt12_Vector_baseIN7jsonnet8internal12_GLOBAL__N_15FrameESaIS3_EED2Ev(ptr noundef nonnull align 8 dereferenceable(24) %0) unnamed_addr #5 align 2 personality ptr @__gxx_personality_v0 {
  %2 = alloca ptr, align 8
  store ptr %0, ptr %2, align 8, !tbaa !623
  %3 = load ptr, ptr %2, align 8
  %4 = getelementptr inbounds nuw %"struct.std::_Vector_base.19", ptr %3, i32 0, i32 0
  %5 = getelementptr inbounds nuw %"struct.std::_Vector_base<jsonnet::internal::(anonymous namespace)::Frame, std::allocator<jsonnet::internal::(anonymous namespace)::Frame>>::_Vector_impl_data", ptr %4, i32 0, i32 0
  %6 = load ptr, ptr %5, align 8, !tbaa !631
  %7 = getelementptr inbounds nuw %"struct.std::_Vector_base.19", ptr %3, i32 0, i32 0
  %8 = getelementptr inbounds nuw %"struct.std::_Vector_base<jsonnet::internal::(anonymous namespace)::Frame, std::allocator<jsonnet::internal::(anonymous namespace)::Frame>>::_Vector_impl_data", ptr %7, i32 0, i32 2
  %9 = load ptr, ptr %8, align 8, !tbaa !633
  %10 = getelementptr inbounds nuw %"struct.std::_Vector_base.19", ptr %3, i32 0, i32 0
  %11 = getelementptr inbounds nuw %"struct.std::_Vector_base<jsonnet::internal::(anonymous namespace)::Frame, std::allocator<jsonnet::internal::(anonymous namespace)::Frame>>::_Vector_impl_data", ptr %10, i32 0, i32 0
  %12 = load ptr, ptr %11, align 8, !tbaa !631
  %13 = ptrtoint ptr %9 to i64
  %14 = ptrtoint ptr %12 to i64
  %15 = sub i64 %13, %14
  %16 = sdiv exact i64 %15, 400
  invoke void @_ZNSt12_Vector_baseIN7jsonnet8internal12_GLOBAL__N_15FrameESaIS3_EE13_M_deallocateEPS3_m(ptr noundef nonnull align 8 dereferenceable(24) %3, ptr noundef %6, i64 noundef %16)
          to label %17 unwind label %19

17:                                               ; preds = %1
  %18 = getelementptr inbounds nuw %"struct.std::_Vector_base.19", ptr %3, i32 0, i32 0
  call void @_ZNSt15__new_allocatorIN7jsonnet8internal12_GLOBAL__N_15FrameEED2Ev(ptr noundef nonnull align 8 dereferenceable(24) %18) #3
  ret void

19:                                               ; preds = %1
  %20 = landingpad { ptr, i32 }
          catch ptr null
  %21 = extractvalue { ptr, i32 } %20, 0
  call void @__clang_call_terminate(ptr %21) #32
  unreachable
}

; Function Attrs: inlinehint mustprogress uwtable
define internal void @_ZSt8_DestroyIPN7jsonnet8internal12_GLOBAL__N_15FrameES3_EvT_S5_RSaIT0_E(ptr noundef %0, ptr noundef %1, ptr noundef nonnull align 1 dereferenceable(1) %2) #7 {
  %4 = alloca ptr, align 8
  %5 = alloca ptr, align 8
  %6 = alloca ptr, align 8
  store ptr %0, ptr %4, align 8, !tbaa !204
  store ptr %1, ptr %5, align 8, !tbaa !204
  store ptr %2, ptr %6, align 8, !tbaa !627
  %7 = load ptr, ptr %4, align 8, !tbaa !204
  %8 = load ptr, ptr %5, align 8, !tbaa !204
  call void @_ZSt8_DestroyIPN7jsonnet8internal12_GLOBAL__N_15FrameEEvT_S5_(ptr noundef %7, ptr noundef %8)
  ret void
}

; Function Attrs: mustprogress nounwind uwtable
define internal noundef nonnull align 1 dereferenceable(1) ptr @_ZNSt12_Vector_baseIN7jsonnet8internal12_GLOBAL__N_15FrameESaIS3_EE19_M_get_Tp_allocatorEv(ptr noundef nonnull align 8 dereferenceable(24) %0) #5 align 2 {
  %2 = alloca ptr, align 8
  store ptr %0, ptr %2, align 8, !tbaa !623
  %3 = load ptr, ptr %2, align 8
  %4 = getelementptr inbounds nuw %"struct.std::_Vector_base.19", ptr %3, i32 0, i32 0
  ret ptr %4
}

; Function Attrs: mustprogress nounwind uwtable
define internal void @_ZNSt6vectorIN7jsonnet8internal12_GLOBAL__N_15FrameESaIS3_EED2Ev(ptr noundef nonnull align 8 dereferenceable(24) %0) unnamed_addr #5 align 2 personality ptr @__gxx_personality_v0 {
  %2 = alloca ptr, align 8
  store ptr %0, ptr %2, align 8, !tbaa !620
  %3 = load ptr, ptr %2, align 8
  %4 = getelementptr inbounds nuw %"struct.std::_Vector_base.19", ptr %3, i32 0, i32 0
  %5 = getelementptr inbounds nuw %"struct.std::_Vector_base<jsonnet::internal::(anonymous namespace)::Frame, std::allocator<jsonnet::internal::(anonymous namespace)::Frame>>::_Vector_impl_data", ptr %4, i32 0, i32 0
  %6 = load ptr, ptr %5, align 8, !tbaa !631
  %7 = getelementptr inbounds nuw %"struct.std::_Vector_base.19", ptr %3, i32 0, i32 0
  %8 = getelementptr inbounds nuw %"struct.std::_Vector_base<jsonnet::internal::(anonymous namespace)::Frame, std::allocator<jsonnet::internal::(anonymous namespace)::Frame>>::_Vector_impl_data", ptr %7, i32 0, i32 1
  %9 = load ptr, ptr %8, align 8, !tbaa !632
  %10 = call noundef nonnull align 1 dereferenceable(1) ptr @_ZNSt12_Vector_baseIN7jsonnet8internal12_GLOBAL__N_15FrameESaIS3_EE19_M_get_Tp_allocatorEv(ptr noundef nonnull align 8 dereferenceable(24) %3) #3
  invoke void @_ZSt8_DestroyIPN7jsonnet8internal12_GLOBAL__N_15FrameES3_EvT_S5_RSaIT0_E(ptr noundef %6, ptr noundef %9, ptr noundef nonnull align 1 dereferenceable(1) %10)
          to label %11 unwind label %12

11:                                               ; preds = %1
  call void @_ZNSt12_Vector_baseIN7jsonnet8internal12_GLOBAL__N_15FrameESaIS3_EED2Ev(ptr noundef nonnull align 8 dereferenceable(24) %3) #3
  ret void

12:                                               ; preds = %1
  %13 = landingpad { ptr, i32 }
          catch ptr null
  %14 = extractvalue { ptr, i32 } %13, 0
  call void @__clang_call_terminate(ptr %14) #32
  unreachable
}

; Function Attrs: mustprogress nounwind uwtable
define internal void @_ZN7jsonnet8internal12_GLOBAL__N_15StackD2Ev(ptr noundef nonnull align 8 dereferenceable(40) %0) unnamed_addr #5 align 2 {
  %2 = alloca ptr, align 8
  store ptr %0, ptr %2, align 8, !tbaa !551
  %3 = load ptr, ptr %2, align 8
  store ptr getelementptr inbounds inrange(-16, 8) ({ [3 x ptr] }, ptr @_ZTVN7jsonnet8internal12_GLOBAL__N_15StackE, i32 0, i32 0, i32 2), ptr %3, align 8, !tbaa !310
  %4 = getelementptr inbounds nuw %"class.jsonnet::internal::(anonymous namespace)::Stack", ptr %3, i32 0, i32 3
  call void @_ZNSt6vectorIN7jsonnet8internal12_GLOBAL__N_15FrameESaIS3_EED2Ev(ptr noundef nonnull align 8 dereferenceable(24) %4) #3
  ret void
}