; Function Attrs: mustprogress nounwind uwtable
define internal fastcc void @_ZN7jsonnet8internal12_GLOBAL__N_15StackD2Ev(ptr noundef nonnull align 8 captures(none) dereferenceable(40) initializes((0, 8)) %0) unnamed_addr #3 align 2 personality ptr @__gxx_personality_v0 {
  store ptr getelementptr inbounds nuw inrange(-16, 8) (i8, ptr @_ZTVN7jsonnet8internal12_GLOBAL__N_15StackE, i64 16), ptr %0, align 8, !tbaa !43
  %2 = getelementptr inbounds nuw i8, ptr %0, i64 16
  %3 = load ptr, ptr %2, align 8, !tbaa !200
  %4 = getelementptr inbounds nuw i8, ptr %0, i64 24
  %5 = load ptr, ptr %4, align 8, !tbaa !201
  %.not4.i.i.i.i = icmp eq ptr %3, %5
  br i1 %.not4.i.i.i.i, label %_ZSt8_DestroyIPN7jsonnet8internal12_GLOBAL__N_15FrameES3_EvT_S5_RSaIT0_E.exit.i, label %.lr.ph.i.i.i.i

.lr.ph.i.i.i.i:                                   ; preds = %1, %.lr.ph.i.i.i.i
  %.05.i.i.i.i = phi ptr [ %6, %.lr.ph.i.i.i.i ], [ %3, %1 ]
  tail call fastcc void @_ZN7jsonnet8internal12_GLOBAL__N_15FrameD2Ev(ptr noundef nonnull align 8 dereferenceable(400) %.05.i.i.i.i) #38
  %6 = getelementptr inbounds nuw i8, ptr %.05.i.i.i.i, i64 400
  %.not.i.i.i.i = icmp eq ptr %6, %5
  br i1 %.not.i.i.i.i, label %_ZSt8_DestroyIPN7jsonnet8internal12_GLOBAL__N_15FrameES3_EvT_S5_RSaIT0_E.exitthread-pre-split.i, label %.lr.ph.i.i.i.i, !llvm.loop !400

_ZSt8_DestroyIPN7jsonnet8internal12_GLOBAL__N_15FrameES3_EvT_S5_RSaIT0_E.exitthread-pre-split.i: ; preds = %.lr.ph.i.i.i.i
  %.val.pr.i = load ptr, ptr %2, align 8, !tbaa !200
  br label %_ZSt8_DestroyIPN7jsonnet8internal12_GLOBAL__N_15FrameES3_EvT_S5_RSaIT0_E.exit.i

_ZSt8_DestroyIPN7jsonnet8internal12_GLOBAL__N_15FrameES3_EvT_S5_RSaIT0_E.exit.i: ; preds = %_ZSt8_DestroyIPN7jsonnet8internal12_GLOBAL__N_15FrameES3_EvT_S5_RSaIT0_E.exitthread-pre-split.i, %1
  %.val.i = phi ptr [ %.val.pr.i, %_ZSt8_DestroyIPN7jsonnet8internal12_GLOBAL__N_15FrameES3_EvT_S5_RSaIT0_E.exitthread-pre-split.i ], [ %3, %1 ]
  %.not.i.i.i = icmp eq ptr %.val.i, null
  br i1 %.not.i.i.i, label %_ZNSt6vectorIN7jsonnet8internal12_GLOBAL__N_15FrameESaIS3_EED2Ev.exit, label %7

7:                                                ; preds = %_ZSt8_DestroyIPN7jsonnet8internal12_GLOBAL__N_15FrameES3_EvT_S5_RSaIT0_E.exit.i
  %8 = getelementptr inbounds nuw i8, ptr %0, i64 32
  %.val1.i = load ptr, ptr %8, align 8, !tbaa !401
  %9 = ptrtoint ptr %.val1.i to i64
  %10 = ptrtoint ptr %.val.i to i64
  %11 = sub i64 %9, %10
  tail call void @_ZdlPvm(ptr noundef nonnull %.val.i, i64 noundef %11) #39
  br label %_ZNSt6vectorIN7jsonnet8internal12_GLOBAL__N_15FrameESaIS3_EED2Ev.exit

_ZNSt6vectorIN7jsonnet8internal12_GLOBAL__N_15FrameESaIS3_EED2Ev.exit: ; preds = %_ZSt8_DestroyIPN7jsonnet8internal12_GLOBAL__N_15FrameES3_EvT_S5_RSaIT0_E.exit.i, %7
  ret void
}